; Function Attrs: nounwind uwtable
define i32 @lv_chart_get_first_point_center_offset(ptr noundef %0) local_unnamed_addr #0 {
  %2 = tail call ptr @lv_obj_get_style_prop(ptr noundef %0, i32 noundef 0, i8 noundef zeroext 18) #8
  %3 = ptrtoint ptr %2 to i64
  %.sroa.0.0.extract.trunc.i = trunc i64 %3 to i32
  %4 = getelementptr inbounds nuw i8, ptr %0, i64 160
  %5 = load i8, ptr %4, align 8
  %6 = and i8 %5, 7
  %7 = icmp eq i8 %6, 2
  br i1 %7, label %8, label %19

8:                                                ; preds = %1
  tail call void @lv_obj_update_layout(ptr noundef nonnull %0) #8
  %9 = tail call ptr @lv_obj_get_style_prop(ptr noundef nonnull %0, i32 noundef 0, i8 noundef zeroext 21) #8
  %10 = ptrtoint ptr %9 to i64
  %.sroa.0.0.extract.trunc.i12 = trunc i64 %10 to i32
  %11 = tail call i32 @lv_obj_get_content_width(ptr noundef nonnull %0) #8
  %12 = add nsw i32 %11, %.sroa.0.0.extract.trunc.i12
  %13 = getelementptr inbounds nuw i8, ptr %0, i64 156
  %14 = load i32, ptr %13, align 4, !tbaa !15
  %15 = udiv i32 %12, %14
  %16 = sub nsw i32 %15, %.sroa.0.0.extract.trunc.i12
  %17 = sdiv i32 %16, 2
  %18 = add nsw i32 %17, %.sroa.0.0.extract.trunc.i
  br label %19

19:                                               ; preds = %8, %1
  %.0 = phi i32 [ %18, %8 ], [ %.sroa.0.0.extract.trunc.i, %1 ]
  ret i32 %.0
}